ccopy_reg
_reconstructor
p0
(cgoogle.oauth2.credentials
Credentials
p1
c__builtin__
object
p2
Ntp3
Rp4
(dp5
S'_token_uri'
p6
Vhttps://oauth2.googleapis.com/token
p7
sS'_scopes'
p8
(lp9
S'https://www.googleapis.com/auth/documents'
p10
aS'https://www.googleapis.com/auth/drive.appdata'
p11
aS'https://www.googleapis.com/auth/drive'
p12
asS'_id_token'
p13
NsS'token'
p14
Vya29.Gly9BhOMYRtyimjyefl2I09Cac_9N8RhhgKN4dn3CysUDjsJ9VlwVhqD7QvUF8EAnFLz91cZ3L-UG22O2E0NWT7_D3m5FYVvUpTJc8VWXi_NkJ7B0eUmkzGbZ-YTrw
p15
sS'_refresh_token'
p16
V1/iaIg-1F5_Qkwi7FXI4H9xmJ4Ahzx9FkZ2_qSR7lX9ZEeAv_K1MZFPQjNWCpSEKI9
p17
sS'_client_secret'
p18
VetFGvAMxRsj85sh6zmIl_b3D
p19
sS'_client_id'
p20
V280396769102-kaasksna108pnj2dgv80ut370iqpbqdu.apps.googleusercontent.com
p21
sS'expiry'
p22
cdatetime
datetime
p23
(S'\x07\xe3\x02\x1b\t1:\x06\xc9P'
p24
tp25
Rp26
sb.