ccopy_reg
_reconstructor
p0
(cgoogle.oauth2.credentials
Credentials
p1
c__builtin__
object
p2
Ntp3
Rp4
(dp5
S'_token_uri'
p6
Vhttps://oauth2.googleapis.com/token
p7
sS'_scopes'
p8
(lp9
S'https://www.googleapis.com/auth/documents.readonly'
p10
aS'https://www.googleapis.com/auth/drive'
p11
aS'https://www.googleapis.com/auth/drive.file'
p12
aS'https://www.googleapis.com/auth/drive.appdata'
p13
asS'_id_token'
p14
NsS'token'
p15
Vya29.Glu8BpSvZNiC1u1Rdy2mKjXqw9xnZAV7Of9BiyQdIX_jUWoK68NfrM3CRf_4pNEO23-uNorWYR5IEpXVbm7soDRxNZ7ntB3Qhxaw1cbqJMssGFbX83CXUtUM37e6
p16
sS'_refresh_token'
p17
V1/1s7dBp8-FNUO68tum-TCYGPw6TYBaoxl8gJ0HkTUksA
p18
sS'_client_secret'
p19
VetFGvAMxRsj85sh6zmIl_b3D
p20
sS'_client_id'
p21
V280396769102-kaasksna108pnj2dgv80ut370iqpbqdu.apps.googleusercontent.com
p22
sS'expiry'
p23
cdatetime
datetime
p24
(S'\x07\xe3\x02\x1a\x0e"\x1a\x00@E'
p25
tp26
Rp27
sb.